; Function Attrs: mustprogress uwtable
define void @_ZN2cv33createEMDL1HistogramCostExtractorEif(ptr dead_on_unwind noalias writable sret(%"struct.cv::Ptr") align 8 %0, i32 noundef %1, float noundef %2) local_unnamed_addr #3 personality ptr @__gxx_personality_v0 {
  %4 = tail call noalias noundef nonnull dereferenceable(48) ptr @_Znwm(i64 noundef 48) #15
  invoke void @_ZN2cv9AlgorithmC2Ev(ptr noundef nonnull align 8 dereferenceable(8) %4)
          to label %.noexc unwind label %13

.noexc:                                           ; preds = %3
  store ptr getelementptr inbounds inrange(-16, 104) (i8, ptr @_ZTVN2cv31EMDL1HistogramCostExtractorImplE, i64 16), ptr %4, align 8
  %5 = getelementptr inbounds i8, ptr %4, i64 8
  tail call void @_ZNSt7__cxx1112basic_stringIcSt11char_traitsIcESaIcEEC1Ev(ptr noundef nonnull align 8 dereferenceable(32) %5) #13
  %6 = invoke noundef nonnull align 8 dereferenceable(32) ptr @_ZNSt7__cxx1112basic_stringIcSt11char_traitsIcESaIcEEaSEPKc(ptr noundef nonnull align 8 dereferenceable(32) %5, ptr noundef nonnull @.str.7)
          to label %9 unwind label %7

7:                                                ; preds = %.noexc
  %8 = landingpad { ptr, i32 }
          cleanup
  tail call void @_ZNSt7__cxx1112basic_stringIcSt11char_traitsIcESaIcEED1Ev(ptr noundef nonnull align 8 dereferenceable(32) %5) #13
  tail call void @_ZN2cv9AlgorithmD2Ev(ptr noundef nonnull align 8 dereferenceable(8) %4) #13
  br label %.body

9:                                                ; preds = %.noexc
  %10 = getelementptr inbounds i8, ptr %4, i64 40
  store i32 %1, ptr %10, align 8
  %11 = getelementptr inbounds i8, ptr %4, i64 44
  store float %2, ptr %11, align 4
  store ptr %4, ptr %0, align 8
  %12 = getelementptr inbounds i8, ptr %0, i64 8
  tail call void @_ZNSt14__shared_countILN9__gnu_cxx12_Lock_policyE2EEC2IPN2cv31EMDL1HistogramCostExtractorImplEEET_(ptr noundef nonnull align 8 dereferenceable(8) %12, ptr noundef nonnull %4)
  ret void

13:                                               ; preds = %3
  %14 = landingpad { ptr, i32 }
          cleanup
  br label %.body

.body:                                            ; preds = %7, %13
  %eh.lpad-body = phi { ptr, i32 } [ %14, %13 ], [ %8, %7 ]
  tail call void @_ZdlPv(ptr noundef nonnull %4) #16
  resume { ptr, i32 } %eh.lpad-body
}